; Function Attrs: nounwind uwtable
define hidden void @zim_DirectoryIterator_key(ptr nocapture noundef readonly %0, ptr nocapture noundef writeonly %1) #0 {
  %3 = getelementptr inbounds i8, ptr %0, i64 32
  %4 = load ptr, ptr %3, align 8
  %5 = getelementptr inbounds i8, ptr %0, i64 44
  %6 = load i32, ptr %5, align 4
  %.not = icmp eq i32 %6, 0
  br i1 %.not, label %.critedge, label %7

7:                                                ; preds = %2
  tail call void @zend_wrong_parameters_none_error() #18
  %8 = load ptr, ptr getelementptr inbounds (%struct._zend_executor_globals, ptr @executor_globals, i64 0, i32 50), align 8
  %9 = icmp ne ptr %8, null
  tail call void @llvm.assume(i1 %9)
  br label %20

.critedge:                                        ; preds = %2
  %10 = getelementptr inbounds i8, ptr %4, i64 -312
  %11 = load ptr, ptr %10, align 8
  %.not7 = icmp eq ptr %11, null
  br i1 %.not7, label %12, label %15

12:                                               ; preds = %.critedge
  tail call void (ptr, ptr, ...) @zend_throw_error(ptr noundef null, ptr noundef nonnull @.str) #18
  %13 = load ptr, ptr getelementptr inbounds (%struct._zend_executor_globals, ptr @executor_globals, i64 0, i32 50), align 8
  %14 = icmp ne ptr %13, null
  tail call void @llvm.assume(i1 %14)
  br label %20

15:                                               ; preds = %.critedge
  %16 = getelementptr inbounds i8, ptr %4, i64 -296
  %17 = load i32, ptr %16, align 8
  %18 = sext i32 %17 to i64
  store i64 %18, ptr %1, align 8
  %19 = getelementptr inbounds i8, ptr %1, i64 8
  store i32 4, ptr %19, align 8
  br label %20

20:                                               ; preds = %15, %12, %7
  ret void
}